target datalayout = "e-m:e-p270:32:32-p271:32:32-p272:64:64-i64:64-i128:128-f80:128-n8:16:32:64-S128"
target triple = "x86_64-pc-linux-gnu"

%struct.AVBPrint = type { ptr, i32, i32, i32, [1 x i8], [1000 x i8] }

; Function Attrs: nounwind uwtable
define i32 @av_channel_layout_describe(ptr noundef %0, ptr noundef %1, i64 noundef %2) #0 {
  %4 = alloca i32, align 4
  %5 = alloca ptr, align 8
  %6 = alloca ptr, align 8
  %7 = alloca i64, align 8
  %8 = alloca %struct.AVBPrint, align 8
  %9 = alloca i32, align 4
  %10 = alloca i32, align 4
  store ptr %0, ptr %5, align 8, !tbaa !23
  store ptr %1, ptr %6, align 8, !tbaa !14
  store i64 %2, ptr %7, align 8, !tbaa !15
  call void @llvm.lifetime.start.p0(i64 1024, ptr %8) #11
  call void @llvm.lifetime.start.p0(i64 4, ptr %9) #11
  %11 = load ptr, ptr %6, align 8, !tbaa !14
  %12 = icmp ne ptr %11, null
  br i1 %12, label %17, label %13

13:                                               ; preds = %3
  %14 = load i64, ptr %7, align 8, !tbaa !15
  %15 = icmp ne i64 %14, 0
  br i1 %15, label %16, label %17

16:                                               ; preds = %13
  store i32 -22, ptr %4, align 4
  store i32 1, ptr %10, align 4
  br label %36

17:                                               ; preds = %13, %3
  %18 = load ptr, ptr %6, align 8, !tbaa !14
  %19 = load i64, ptr %7, align 8, !tbaa !15
  %20 = trunc i64 %19 to i32
  call void @av_bprint_init_for_buffer(ptr noundef %8, ptr noundef %18, i32 noundef %20)
  %21 = load ptr, ptr %5, align 8, !tbaa !23
  %22 = call i32 @av_channel_layout_describe_bprint(ptr noundef %21, ptr noundef %8)
  store i32 %22, ptr %9, align 4, !tbaa !9
  %23 = load i32, ptr %9, align 4, !tbaa !9
  %24 = icmp slt i32 %23, 0
  br i1 %24, label %25, label %27

25:                                               ; preds = %17
  %26 = load i32, ptr %9, align 4, !tbaa !9
  store i32 %26, ptr %4, align 4
  store i32 1, ptr %10, align 4
  br label %36

27:                                               ; preds = %17
  %28 = getelementptr inbounds nuw %struct.AVBPrint, ptr %8, i32 0, i32 1
  %29 = load i32, ptr %28, align 8, !tbaa !17
  %30 = icmp uge i32 %29, 2147483647
  br i1 %30, label %31, label %32

31:                                               ; preds = %27
  store i32 -34, ptr %4, align 4
  store i32 1, ptr %10, align 4
  br label %36

32:                                               ; preds = %27
  %33 = getelementptr inbounds nuw %struct.AVBPrint, ptr %8, i32 0, i32 1
  %34 = load i32, ptr %33, align 8, !tbaa !17
  %35 = add i32 %34, 1
  store i32 %35, ptr %4, align 4
  store i32 1, ptr %10, align 4
  br label %36

36:                                               ; preds = %32, %31, %25, %16
  call void @llvm.lifetime.end.p0(i64 4, ptr %9) #11
  call void @llvm.lifetime.end.p0(i64 1024, ptr %8) #11
  %37 = load i32, ptr %4, align 4
  ret i32 %37
}