; Function Attrs: nounwind uwtable
define range(i32 1, 0) i32 @av_channel_layout_describe(ptr noundef readonly captures(none) %0, ptr noundef %1, i64 noundef %2) local_unnamed_addr #0 {
  %4 = alloca %struct.AVBPrint, align 8
  call void @llvm.lifetime.start.p0(i64 1024, ptr nonnull %4) #16
  %5 = icmp eq ptr %1, null
  %6 = icmp ne i64 %2, 0
  %or.cond = and i1 %5, %6
  br i1 %or.cond, label %16, label %7

7:                                                ; preds = %3
  %8 = trunc i64 %2 to i32
  call void @av_bprint_init_for_buffer(ptr noundef nonnull %4, ptr noundef %1, i32 noundef %8) #16
  %9 = call i32 @av_channel_layout_describe_bprint(ptr noundef %0, ptr noundef nonnull %4)
  %10 = icmp slt i32 %9, 0
  br i1 %10, label %16, label %11

11:                                               ; preds = %7
  %12 = getelementptr inbounds nuw i8, ptr %4, i64 8
  %13 = load i32, ptr %12, align 8, !tbaa !10
  %14 = icmp ugt i32 %13, 2147483646
  %15 = add nuw nsw i32 %13, 1
  %spec.select = select i1 %14, i32 -34, i32 %15
  br label %16

16:                                               ; preds = %11, %7, %3
  %.0 = phi i32 [ -22, %3 ], [ %9, %7 ], [ %spec.select, %11 ]
  call void @llvm.lifetime.end.p0(i64 1024, ptr nonnull %4) #16
  ret i32 %.0
}